; ModuleID = '29/1358.c'
source_filename = "29/1358.c"
target datalayout = "e-m:e-p270:32:32-p271:32:32-p272:64:64-i64:64-f80:128-n8:16:32:64-S128"
target triple = "x86_64-pc-linux-gnu"

@.str = private unnamed_addr constant [3 x i8] c"%d\00", align 1
@.str.1 = private unnamed_addr constant [7 x i8] c"%.3lf\0A\00", align 1

; Function Attrs: noinline nounwind uwtable
define dso_local i32 @main() #0 {
  %1 = alloca i32, align 4
  %2 = alloca i32, align 4
  %3 = alloca i32, align 4
  %4 = alloca i32, align 4
  %5 = alloca double*, align 8
  %6 = alloca i32, align 4
  %7 = alloca i32, align 4
  %8 = alloca i32, align 4
  %9 = alloca i32, align 4
  %10 = alloca i32, align 4
  store i32 0, i32* %1, align 4
  %11 = call i32 (i8*, ...) @__isoc99_scanf(i8* getelementptr inbounds ([3 x i8], [3 x i8]* @.str, i64 0, i64 0), i32* %2)
  %12 = load i32, i32* %2, align 4
  %13 = sext i32 %12 to i64
  %14 = mul i64 8, %13
  %15 = call noalias i8* @malloc(i64 %14) #3
  %16 = bitcast i8* %15 to double*
  store double* %16, double** %5, align 8
  store i32 0, i32* %6, align 4
  br label %17

17:                                               ; preds = %53, %0
  %18 = load i32, i32* %6, align 4
  %19 = load i32, i32* %2, align 4
  %20 = icmp slt i32 %18, %19
  br i1 %20, label %21, label %56

21:                                               ; preds = %17
  %22 = call i32 (i8*, ...) @__isoc99_scanf(i8* getelementptr inbounds ([3 x i8], [3 x i8]* @.str, i64 0, i64 0), i32* %3)
  store i32 2, i32* %7, align 4
  store i32 1, i32* %8, align 4
  %23 = load double*, double** %5, align 8
  %24 = load i32, i32* %6, align 4
  %25 = sext i32 %24 to i64
  %26 = getelementptr inbounds double, double* %23, i64 %25
  store double 0.000000e+00, double* %26, align 8
  store i32 0, i32* %9, align 4
  br label %27

27:                                               ; preds = %49, %21
  %28 = load i32, i32* %9, align 4
  %29 = load i32, i32* %3, align 4
  %30 = icmp slt i32 %28, %29
  br i1 %30, label %31, label %52

31:                                               ; preds = %27
  %32 = load i32, i32* %7, align 4
  %33 = sitofp i32 %32 to double
  %34 = fmul double 1.000000e+00, %33
  %35 = load i32, i32* %8, align 4
  %36 = sitofp i32 %35 to double
  %37 = fdiv double %34, %36
  %38 = load double*, double** %5, align 8
  %39 = load i32, i32* %6, align 4
  %40 = sext i32 %39 to i64
  %41 = getelementptr inbounds double, double* %38, i64 %40
  %42 = load double, double* %41, align 8
  %43 = fadd double %42, %37
  store double %43, double* %41, align 8
  %44 = load i32, i32* %7, align 4
  store i32 %44, i32* %4, align 4
  %45 = load i32, i32* %7, align 4
  %46 = load i32, i32* %8, align 4
  %47 = add nsw i32 %45, %46
  store i32 %47, i32* %7, align 4
  %48 = load i32, i32* %4, align 4
  store i32 %48, i32* %8, align 4
  br label %49

49:                                               ; preds = %31
  %50 = load i32, i32* %9, align 4
  %51 = add nsw i32 %50, 1
  store i32 %51, i32* %9, align 4
  br label %27

52:                                               ; preds = %27
  br label %53

53:                                               ; preds = %52
  %54 = load i32, i32* %6, align 4
  %55 = add nsw i32 %54, 1
  store i32 %55, i32* %6, align 4
  br label %17

56:                                               ; preds = %17
  store i32 0, i32* %10, align 4
  br label %57

57:                                               ; preds = %68, %56
  %58 = load i32, i32* %10, align 4
  %59 = load i32, i32* %2, align 4
  %60 = icmp slt i32 %58, %59
  br i1 %60, label %61, label %71

61:                                               ; preds = %57
  %62 = load double*, double** %5, align 8
  %63 = load i32, i32* %10, align 4
  %64 = sext i32 %63 to i64
  %65 = getelementptr inbounds double, double* %62, i64 %64
  %66 = load double, double* %65, align 8
  %67 = call i32 (i8*, ...) @printf(i8* getelementptr inbounds ([7 x i8], [7 x i8]* @.str.1, i64 0, i64 0), double %66)
  br label %68

68:                                               ; preds = %61
  %69 = load i32, i32* %10, align 4
  %70 = add nsw i32 %69, 1
  store i32 %70, i32* %10, align 4
  br label %57

71:                                               ; preds = %57
  %72 = load double*, double** %5, align 8
  %73 = bitcast double* %72 to i8*
  call void @free(i8* %73) #3
  ret i32 0
}

declare dso_local i32 @__isoc99_scanf(i8*, ...) #1

; Function Attrs: nounwind
declare dso_local noalias i8* @malloc(i64) #2

declare dso_local i32 @printf(i8*, ...) #1

; Function Attrs: nounwind
declare dso_local void @free(i8*) #2


!llvm.module.flags = !{!0}
!llvm.ident = !{!1}

!0 = !{i32 1, !"wchar_size", i32 4}
!1 = !{!"clang version 10.0.0-4ubuntu1 "}
